; Function Attrs: mustprogress uwtable
define hidden noundef i32 @_ZN4ncnn9HardSwish10load_paramERKNS_9ParamDictE(ptr nocapture noundef nonnull align 8 dereferenceable(224) %0, ptr noundef nonnull align 8 dereferenceable(16) %1) unnamed_addr #0 align 2 {
  %3 = tail call fast noundef nofpclass(nan inf) float @_ZNK4ncnn9ParamDict3getEif(ptr noundef nonnull align 8 dereferenceable(16) %1, i32 noundef 0, float noundef nofpclass(nan inf) 0x3FC99999A0000000)
  %4 = getelementptr inbounds nuw i8, ptr %0, i64 208
  store float %3, ptr %4, align 8
  %5 = tail call fast noundef nofpclass(nan inf) float @_ZNK4ncnn9ParamDict3getEif(ptr noundef nonnull align 8 dereferenceable(16) %1, i32 noundef 1, float noundef nofpclass(nan inf) 5.000000e-01)
  %6 = getelementptr inbounds nuw i8, ptr %0, i64 212
  store float %5, ptr %6, align 4
  %7 = fneg fast float %5
  %8 = load float, ptr %4, align 8
  %9 = fdiv fast float %7, %8
  %10 = getelementptr inbounds nuw i8, ptr %0, i64 216
  store float %9, ptr %10, align 8
  %11 = fdiv fast float 1.000000e+00, %8
  %12 = fadd fast float %11, %9
  %13 = getelementptr inbounds nuw i8, ptr %0, i64 220
  store float %12, ptr %13, align 4
  ret i32 0
}